; Function Attrs: nofree norecurse nosync nounwind memory(readwrite, inaccessiblemem: none) uwtable
define void @PQupheap(i32 noundef %0) local_unnamed_addr #5 {
  %2 = load ptr, ptr @pq, align 8, !tbaa !3
  %3 = sext i32 %0 to i64
  %4 = getelementptr inbounds ptr, ptr %2, i64 %3
  %5 = load ptr, ptr %4, align 8, !tbaa !10
  %6 = load i32, ptr %5, align 8, !tbaa !14
  %.01415 = sdiv i32 %0, 2
  %7 = sext i32 %.01415 to i64
  %8 = getelementptr inbounds ptr, ptr %2, i64 %7
  %9 = load ptr, ptr %8, align 8, !tbaa !10
  %10 = load i32, ptr %9, align 8, !tbaa !14
  %11 = icmp slt i32 %10, %6
  br i1 %11, label %.lr.ph, label %._crit_edge

.lr.ph:                                           ; preds = %1, %.lr.ph
  %12 = phi ptr [ %18, %.lr.ph ], [ %9, %1 ]
  %.01417 = phi i32 [ %.014, %.lr.ph ], [ %.01415, %1 ]
  %.016 = phi i32 [ %.01417, %.lr.ph ], [ %0, %1 ]
  %13 = sext i32 %.016 to i64
  %14 = getelementptr inbounds ptr, ptr %2, i64 %13
  store ptr %12, ptr %14, align 8, !tbaa !10
  %15 = getelementptr inbounds nuw i8, ptr %12, i64 4
  store i32 %.016, ptr %15, align 4, !tbaa !20
  %.014 = sdiv i32 %.01417, 2
  %16 = sext i32 %.014 to i64
  %17 = getelementptr inbounds ptr, ptr %2, i64 %16
  %18 = load ptr, ptr %17, align 8, !tbaa !10
  %19 = load i32, ptr %18, align 8, !tbaa !14
  %20 = icmp slt i32 %19, %6
  br i1 %20, label %.lr.ph, label %._crit_edge.loopexit, !llvm.loop !21

._crit_edge.loopexit:                             ; preds = %.lr.ph
  %.pre = sext i32 %.01417 to i64
  br label %._crit_edge

._crit_edge:                                      ; preds = %._crit_edge.loopexit, %1
  %.pre-phi = phi i64 [ %.pre, %._crit_edge.loopexit ], [ %3, %1 ]
  %.0.lcssa = phi i32 [ %.01417, %._crit_edge.loopexit ], [ %0, %1 ]
  %21 = getelementptr inbounds ptr, ptr %2, i64 %.pre-phi
  store ptr %5, ptr %21, align 8, !tbaa !10
  %22 = getelementptr inbounds nuw i8, ptr %5, i64 4
  store i32 %.0.lcssa, ptr %22, align 4, !tbaa !20
  ret void
}